; Function Attrs: mustprogress nounwind uwtable
define hidden void @_ZN14AsyncLogWriter13BufferUpdaterC2Em(ptr nocapture noundef nonnull writeonly align 8 dereferenceable(16) %0, i64 noundef %1) unnamed_addr #4 align 2 {
  %3 = load ptr, ptr @_ZN14AsyncLogWriter9_instanceE, align 8
  %4 = getelementptr inbounds i8, ptr %3, i64 928
  %5 = tail call i32 @pthread_mutex_lock(ptr noundef nonnull %4) #16
  %6 = load ptr, ptr @_ZN14AsyncLogWriter9_instanceE, align 8
  %7 = getelementptr inbounds i8, ptr %6, i64 1168
  %8 = load ptr, ptr %7, align 8
  store ptr %8, ptr %0, align 8
  %9 = getelementptr inbounds i8, ptr %6, i64 1176
  %10 = load ptr, ptr %9, align 8
  %11 = getelementptr inbounds i8, ptr %0, i64 8
  store ptr %10, ptr %11, align 8
  %12 = tail call noundef ptr @_Z12AllocateHeapm8MEMFLAGSN17AllocFailStrategy13AllocFailEnumE(i64 noundef 24, i8 noundef zeroext 17, i32 noundef 0) #16
  %13 = getelementptr inbounds i8, ptr %12, i64 8
  store i64 0, ptr %13, align 8
  %14 = getelementptr inbounds i8, ptr %12, i64 16
  store i64 %1, ptr %14, align 8
  %15 = tail call noundef ptr @_Z12AllocateHeapm8MEMFLAGSN17AllocFailStrategy13AllocFailEnumE(i64 noundef %1, i8 noundef zeroext 17, i32 noundef 0) #16
  store ptr %15, ptr %12, align 8
  %16 = ptrtoint ptr %15 to i64
  %17 = add i64 %16, 7
  %18 = and i64 %17, -8
  %19 = sub i64 %18, %16
  store i64 %19, ptr %13, align 8
  store ptr %12, ptr %7, align 8
  %20 = tail call noundef ptr @_Z12AllocateHeapm8MEMFLAGSN17AllocFailStrategy13AllocFailEnumE(i64 noundef 24, i8 noundef zeroext 17, i32 noundef 0) #16
  %21 = getelementptr inbounds i8, ptr %20, i64 8
  store i64 0, ptr %21, align 8
  %22 = getelementptr inbounds i8, ptr %20, i64 16
  store i64 %1, ptr %22, align 8
  %23 = tail call noundef ptr @_Z12AllocateHeapm8MEMFLAGSN17AllocFailStrategy13AllocFailEnumE(i64 noundef %1, i8 noundef zeroext 17, i32 noundef 0) #16
  store ptr %23, ptr %20, align 8
  %24 = ptrtoint ptr %23 to i64
  %25 = add i64 %24, 7
  %26 = and i64 %25, -8
  %27 = sub i64 %26, %24
  store i64 %27, ptr %21, align 8
  store ptr %20, ptr %9, align 8
  %28 = load ptr, ptr @_ZN14AsyncLogWriter9_instanceE, align 8
  %29 = getelementptr inbounds i8, ptr %28, i64 928
  %30 = tail call i32 @pthread_mutex_unlock(ptr noundef nonnull %29) #16
  ret void
}